; ModuleID = '62/3015.c'
source_filename = "62/3015.c"
target datalayout = "e-m:e-p270:32:32-p271:32:32-p272:64:64-i64:64-f80:128-n8:16:32:64-S128"
target triple = "x86_64-pc-linux-gnu"

@.str = private unnamed_addr constant [3 x i8] c"%c\00", align 1

; Function Attrs: noinline nounwind uwtable
define dso_local i32 @main() #0 {
  %1 = alloca i32, align 4
  %2 = alloca [1000 x i8], align 16
  %3 = alloca i32, align 4
  %4 = alloca i32, align 4
  %5 = alloca i32, align 4
  %6 = alloca i32, align 4
  store i32 0, i32* %1, align 4
  %7 = getelementptr inbounds [1000 x i8], [1000 x i8]* %2, i64 0, i64 0
  %8 = call i32 (i8*, ...) bitcast (i32 (...)* @gets to i32 (i8*, ...)*)(i8* %7)
  %9 = getelementptr inbounds [1000 x i8], [1000 x i8]* %2, i64 0, i64 0
  %10 = call i64 @strlen(i8* %9) #3
  %11 = trunc i64 %10 to i32
  store i32 %11, i32* %4, align 4
  %12 = load i32, i32* %4, align 4
  store i32 %12, i32* %6, align 4
  store i32 0, i32* %3, align 4
  br label %13

13:                                               ; preds = %58, %0
  %14 = load i32, i32* %3, align 4
  %15 = load i32, i32* %4, align 4
  %16 = sub nsw i32 %15, 1
  %17 = icmp slt i32 %14, %16
  br i1 %17, label %18, label %61

18:                                               ; preds = %13
  %19 = load i32, i32* %3, align 4
  %20 = sext i32 %19 to i64
  %21 = getelementptr inbounds [1000 x i8], [1000 x i8]* %2, i64 0, i64 %20
  %22 = load i8, i8* %21, align 1
  %23 = sext i8 %22 to i32
  %24 = icmp eq i32 %23, 32
  br i1 %24, label %25, label %57

25:                                               ; preds = %18
  %26 = load i32, i32* %3, align 4
  %27 = add nsw i32 %26, 1
  %28 = sext i32 %27 to i64
  %29 = getelementptr inbounds [1000 x i8], [1000 x i8]* %2, i64 0, i64 %28
  %30 = load i8, i8* %29, align 1
  %31 = sext i8 %30 to i32
  %32 = icmp eq i32 %31, 32
  br i1 %32, label %33, label %57

33:                                               ; preds = %25
  %34 = load i32, i32* %3, align 4
  store i32 %34, i32* %5, align 4
  br label %35

35:                                               ; preds = %49, %33
  %36 = load i32, i32* %5, align 4
  %37 = load i32, i32* %6, align 4
  %38 = sub nsw i32 %37, 1
  %39 = icmp slt i32 %36, %38
  br i1 %39, label %40, label %52

40:                                               ; preds = %35
  %41 = load i32, i32* %5, align 4
  %42 = add nsw i32 %41, 1
  %43 = sext i32 %42 to i64
  %44 = getelementptr inbounds [1000 x i8], [1000 x i8]* %2, i64 0, i64 %43
  %45 = load i8, i8* %44, align 1
  %46 = load i32, i32* %5, align 4
  %47 = sext i32 %46 to i64
  %48 = getelementptr inbounds [1000 x i8], [1000 x i8]* %2, i64 0, i64 %47
  store i8 %45, i8* %48, align 1
  br label %49

49:                                               ; preds = %40
  %50 = load i32, i32* %5, align 4
  %51 = add nsw i32 %50, 1
  store i32 %51, i32* %5, align 4
  br label %35

52:                                               ; preds = %35
  %53 = load i32, i32* %3, align 4
  %54 = add nsw i32 %53, -1
  store i32 %54, i32* %3, align 4
  %55 = load i32, i32* %6, align 4
  %56 = add nsw i32 %55, -1
  store i32 %56, i32* %6, align 4
  br label %57

57:                                               ; preds = %52, %25, %18
  br label %58

58:                                               ; preds = %57
  %59 = load i32, i32* %3, align 4
  %60 = add nsw i32 %59, 1
  store i32 %60, i32* %3, align 4
  br label %13

61:                                               ; preds = %13
  store i32 0, i32* %3, align 4
  br label %62

62:                                               ; preds = %73, %61
  %63 = load i32, i32* %3, align 4
  %64 = load i32, i32* %6, align 4
  %65 = icmp slt i32 %63, %64
  br i1 %65, label %66, label %76

66:                                               ; preds = %62
  %67 = load i32, i32* %3, align 4
  %68 = sext i32 %67 to i64
  %69 = getelementptr inbounds [1000 x i8], [1000 x i8]* %2, i64 0, i64 %68
  %70 = load i8, i8* %69, align 1
  %71 = sext i8 %70 to i32
  %72 = call i32 (i8*, ...) @printf(i8* getelementptr inbounds ([3 x i8], [3 x i8]* @.str, i64 0, i64 0), i32 %71)
  br label %73

73:                                               ; preds = %66
  %74 = load i32, i32* %3, align 4
  %75 = add nsw i32 %74, 1
  store i32 %75, i32* %3, align 4
  br label %62

76:                                               ; preds = %62
  ret i32 0
}

declare dso_local i32 @gets(...) #1

; Function Attrs: nounwind readonly
declare dso_local i64 @strlen(i8*) #2

declare dso_local i32 @printf(i8*, ...) #1


!llvm.module.flags = !{!0}
!llvm.ident = !{!1}

!0 = !{i32 1, !"wchar_size", i32 4}
!1 = !{!"clang version 10.0.0-4ubuntu1 "}
